; Function Attrs: mustprogress nofree norecurse nosync nounwind willreturn memory(argmem: write) uwtable
define void @pg_prng_seed(ptr noundef writeonly captures(none) initializes((0, 16)) %0, i64 noundef %1) local_unnamed_addr #0 {
  %3 = add i64 %1, -7046029254386353131
  %4 = lshr i64 %3, 30
  %5 = xor i64 %4, %3
  %6 = mul i64 %5, -4658895280553007687
  %7 = lshr i64 %6, 27
  %8 = xor i64 %7, %6
  %9 = mul i64 %8, -7723592293110705685
  %10 = lshr i64 %9, 31
  %11 = xor i64 %10, %9
  store i64 %11, ptr %0, align 8
  %12 = add i64 %1, 4354685564936845354
  %13 = lshr i64 %12, 30
  %14 = xor i64 %13, %12
  %15 = mul i64 %14, -4658895280553007687
  %16 = lshr i64 %15, 27
  %17 = xor i64 %16, %15
  %18 = mul i64 %17, -7723592293110705685
  %19 = lshr i64 %18, 31
  %20 = xor i64 %19, %18
  %21 = getelementptr inbounds nuw i8, ptr %0, i64 8
  store i64 %20, ptr %21, align 8
  %22 = or i64 %3, %12
  %or.cond = icmp eq i64 %22, 0
  br i1 %or.cond, label %23, label %pg_prng_seed_check.exit, !prof !3

23:                                               ; preds = %2
  store i64 6364136223846793005, ptr %0, align 8
  store i64 1442695040888963407, ptr %21, align 8
  br label %pg_prng_seed_check.exit

pg_prng_seed_check.exit:                          ; preds = %2, %23
  ret void
}